target datalayout = "e-m:e-p270:32:32-p271:32:32-p272:64:64-i64:64-i128:128-f80:128-n8:16:32:64-S128"
target triple = "x86_64-unknown-linux-gnu"

%"class.std::__cxx11::basic_string" = type { %"struct.std::__cxx11::basic_string<char>::_Alloc_hider", i64, %union.anon }
%"struct.std::__cxx11::basic_string<char>::_Alloc_hider" = type { ptr }
%union.anon = type { i64, [8 x i8] }
%"class.rocksdb::(anonymous namespace)::SkipListRep" = type { %"class.rocksdb::MemTableRep", %"class.rocksdb::InlineSkipList", ptr, ptr, i64 }
%"class.rocksdb::MemTableRep" = type { ptr, ptr }
%"class.rocksdb::InlineSkipList" = type { i16, i16, i32, ptr, ptr, ptr, %"struct.std::atomic", ptr }
%"struct.std::atomic" = type { %"struct.std::__atomic_base" }
%"struct.std::__atomic_base" = type { i32 }
%"class.rocksdb::(anonymous namespace)::SkipListRep::Iterator" = type { %"class.rocksdb::MemTableRep::Iterator", %"class.rocksdb::InlineSkipList<const rocksdb::MemTableRep::KeyComparator &>::Iterator", %"class.std::__cxx11::basic_string" }
%"class.rocksdb::MemTableRep::Iterator" = type { ptr }
%"class.rocksdb::InlineSkipList<const rocksdb::MemTableRep::KeyComparator &>::Iterator" = type { ptr, ptr }
%"class.rocksdb::(anonymous namespace)::SkipListRep::LookaheadIterator" = type { %"class.rocksdb::MemTableRep::Iterator", %"class.std::__cxx11::basic_string", ptr, %"class.rocksdb::InlineSkipList<const rocksdb::MemTableRep::KeyComparator &>::Iterator", %"class.rocksdb::InlineSkipList<const rocksdb::MemTableRep::KeyComparator &>::Iterator" }

; Function Attrs: mustprogress nounwind uwtable
define linkonce_odr void @_ZN7rocksdb14InlineSkipListIRKNS_11MemTableRep13KeyComparatorEE8Iterator7SetListEPKS5_(ptr noundef nonnull align 8 dereferenceable(16) %this, ptr noundef %list) #1 comdat align 2 {
entry:
  %this.addr = alloca ptr, align 8
  %list.addr = alloca ptr, align 8
  store ptr %this, ptr %this.addr, align 8
  store ptr %list, ptr %list.addr, align 8
  %this1 = load ptr, ptr %this.addr, align 8
  %0 = load ptr, ptr %list.addr, align 8
  %list_ = getelementptr inbounds %"class.rocksdb::InlineSkipList<const rocksdb::MemTableRep::KeyComparator &>::Iterator", ptr %this1, i32 0, i32 0
  store ptr %0, ptr %list_, align 8
  %node_ = getelementptr inbounds %"class.rocksdb::InlineSkipList<const rocksdb::MemTableRep::KeyComparator &>::Iterator", ptr %this1, i32 0, i32 1
  store ptr null, ptr %node_, align 8
  ret void
}

; Function Attrs: mustprogress nounwind uwtable
define linkonce_odr void @_ZN7rocksdb11MemTableRep8IteratorD2Ev(ptr noundef nonnull align 8 dereferenceable(8) %this) unnamed_addr #1 comdat align 2 {
entry:
  %this.addr = alloca ptr, align 8
  store ptr %this, ptr %this.addr, align 8
  ret void
}

; Function Attrs: mustprogress uwtable
define linkonce_odr void @_ZN7rocksdb14InlineSkipListIRKNS_11MemTableRep13KeyComparatorEE8IteratorC2EPKS5_(ptr noundef nonnull align 8 dereferenceable(16) %this, ptr noundef %list) unnamed_addr #0 comdat align 2 {
entry:
  %this.addr = alloca ptr, align 8
  %list.addr = alloca ptr, align 8
  store ptr %this, ptr %this.addr, align 8
  store ptr %list, ptr %list.addr, align 8
  %this1 = load ptr, ptr %this.addr, align 8
  %0 = load ptr, ptr %list.addr, align 8
  call void @_ZN7rocksdb14InlineSkipListIRKNS_11MemTableRep13KeyComparatorEE8Iterator7SetListEPKS5_(ptr noundef nonnull align 8 dereferenceable(16) %this1, ptr noundef %0)
  ret void
}

; Function Attrs: mustprogress nounwind uwtable
define linkonce_odr void @_ZN7rocksdb11MemTableRep8IteratorC2Ev(ptr noundef nonnull align 8 dereferenceable(8) %this) unnamed_addr #1 comdat align 2 {
entry:
  %this.addr = alloca ptr, align 8
  store ptr %this, ptr %this.addr, align 8
  %this1 = load ptr, ptr %this.addr, align 8
  store ptr getelementptr inbounds ({ [13 x ptr] }, ptr @_ZTVN7rocksdb11MemTableRep8IteratorE, i32 0, i32 0, i32 2), ptr %this1, align 8
  ret void
}

; Function Attrs: mustprogress uwtable
define internal void @_ZN7rocksdb12_GLOBAL__N_111SkipListRep8IteratorC2EPKNS_14InlineSkipListIRKNS_11MemTableRep13KeyComparatorEEE(ptr noundef nonnull align 8 dereferenceable(56) %this, ptr noundef %list) unnamed_addr #0 align 2 personality ptr @__gxx_personality_v0 {
entry:
  %this.addr = alloca ptr, align 8
  %list.addr = alloca ptr, align 8
  %exn.slot = alloca ptr, align 8
  %ehselector.slot = alloca i32, align 4
  store ptr %this, ptr %this.addr, align 8
  store ptr %list, ptr %list.addr, align 8
  %this1 = load ptr, ptr %this.addr, align 8
  call void @_ZN7rocksdb11MemTableRep8IteratorC2Ev(ptr noundef nonnull align 8 dereferenceable(8) %this1) #3
  store ptr getelementptr inbounds ({ [13 x ptr] }, ptr @_ZTVN7rocksdb12_GLOBAL__N_111SkipListRep8IteratorE, i32 0, i32 0, i32 2), ptr %this1, align 8
  %iter_ = getelementptr inbounds %"class.rocksdb::(anonymous namespace)::SkipListRep::Iterator", ptr %this1, i32 0, i32 1
  %0 = load ptr, ptr %list.addr, align 8
  invoke void @_ZN7rocksdb14InlineSkipListIRKNS_11MemTableRep13KeyComparatorEE8IteratorC2EPKS5_(ptr noundef nonnull align 8 dereferenceable(16) %iter_, ptr noundef %0)
          to label %invoke.cont unwind label %lpad

invoke.cont:                                      ; preds = %entry
  %tmp_ = getelementptr inbounds %"class.rocksdb::(anonymous namespace)::SkipListRep::Iterator", ptr %this1, i32 0, i32 2
  call void @_ZNSt7__cxx1112basic_stringIcSt11char_traitsIcESaIcEEC1Ev(ptr noundef nonnull align 8 dereferenceable(32) %tmp_) #3
  ret void

lpad:                                             ; preds = %entry
  %1 = landingpad { ptr, i32 }
          cleanup
  %2 = extractvalue { ptr, i32 } %1, 0
  store ptr %2, ptr %exn.slot, align 8
  %3 = extractvalue { ptr, i32 } %1, 1
  store i32 %3, ptr %ehselector.slot, align 4
  call void @_ZN7rocksdb11MemTableRep8IteratorD2Ev(ptr noundef nonnull align 8 dereferenceable(8) %this1) #3
  br label %eh.resume

eh.resume:                                        ; preds = %lpad
  %exn = load ptr, ptr %exn.slot, align 8
  %sel = load i32, ptr %ehselector.slot, align 4
  %lpad.val = insertvalue { ptr, i32 } poison, ptr %exn, 0
  %lpad.val2 = insertvalue { ptr, i32 } %lpad.val, i32 %sel, 1
  resume { ptr, i32 } %lpad.val2
}

; Function Attrs: mustprogress uwtable
define internal void @_ZN7rocksdb12_GLOBAL__N_111SkipListRep17LookaheadIteratorC2ERKS1_(ptr noundef nonnull align 8 dereferenceable(80) %this, ptr noundef nonnull align 8 dereferenceable(88) %rep) unnamed_addr #0 align 2 personality ptr @__gxx_personality_v0 {
entry:
  %this.addr = alloca ptr, align 8
  %rep.addr = alloca ptr, align 8
  %exn.slot = alloca ptr, align 8
  %ehselector.slot = alloca i32, align 4
  store ptr %this, ptr %this.addr, align 8
  store ptr %rep, ptr %rep.addr, align 8
  %this1 = load ptr, ptr %this.addr, align 8
  call void @_ZN7rocksdb11MemTableRep8IteratorC2Ev(ptr noundef nonnull align 8 dereferenceable(8) %this1) #3
  store ptr getelementptr inbounds ({ [13 x ptr] }, ptr @_ZTVN7rocksdb12_GLOBAL__N_111SkipListRep17LookaheadIteratorE, i32 0, i32 0, i32 2), ptr %this1, align 8
  %tmp_ = getelementptr inbounds %"class.rocksdb::(anonymous namespace)::SkipListRep::LookaheadIterator", ptr %this1, i32 0, i32 1
  call void @_ZNSt7__cxx1112basic_stringIcSt11char_traitsIcESaIcEEC1Ev(ptr noundef nonnull align 8 dereferenceable(32) %tmp_) #3
  %rep_ = getelementptr inbounds %"class.rocksdb::(anonymous namespace)::SkipListRep::LookaheadIterator", ptr %this1, i32 0, i32 2
  %0 = load ptr, ptr %rep.addr, align 8
  store ptr %0, ptr %rep_, align 8
  %iter_ = getelementptr inbounds %"class.rocksdb::(anonymous namespace)::SkipListRep::LookaheadIterator", ptr %this1, i32 0, i32 3
  %rep_2 = getelementptr inbounds %"class.rocksdb::(anonymous namespace)::SkipListRep::LookaheadIterator", ptr %this1, i32 0, i32 2
  %1 = load ptr, ptr %rep_2, align 8
  %skip_list_ = getelementptr inbounds %"class.rocksdb::(anonymous namespace)::SkipListRep", ptr %1, i32 0, i32 1
  invoke void @_ZN7rocksdb14InlineSkipListIRKNS_11MemTableRep13KeyComparatorEE8IteratorC2EPKS5_(ptr noundef nonnull align 8 dereferenceable(16) %iter_, ptr noundef %skip_list_)
          to label %invoke.cont unwind label %lpad

invoke.cont:                                      ; preds = %entry
  %prev_ = getelementptr inbounds %"class.rocksdb::(anonymous namespace)::SkipListRep::LookaheadIterator", ptr %this1, i32 0, i32 4
  %iter_3 = getelementptr inbounds %"class.rocksdb::(anonymous namespace)::SkipListRep::LookaheadIterator", ptr %this1, i32 0, i32 3
  call void @llvm.memcpy.p0.p0.i64(ptr align 8 %prev_, ptr align 8 %iter_3, i64 16, i1 false)
  ret void

lpad:                                             ; preds = %entry
  %2 = landingpad { ptr, i32 }
          cleanup
  %3 = extractvalue { ptr, i32 } %2, 0
  store ptr %3, ptr %exn.slot, align 8
  %4 = extractvalue { ptr, i32 } %2, 1
  store i32 %4, ptr %ehselector.slot, align 4
  call void @_ZNSt7__cxx1112basic_stringIcSt11char_traitsIcESaIcEED1Ev(ptr noundef nonnull align 8 dereferenceable(32) %tmp_) #3
  call void @_ZN7rocksdb11MemTableRep8IteratorD2Ev(ptr noundef nonnull align 8 dereferenceable(8) %this1) #3
  br label %eh.resume

eh.resume:                                        ; preds = %lpad
  %exn = load ptr, ptr %exn.slot, align 8
  %sel = load i32, ptr %ehselector.slot, align 4
  %lpad.val = insertvalue { ptr, i32 } poison, ptr %exn, 0
  %lpad.val4 = insertvalue { ptr, i32 } %lpad.val, i32 %sel, 1
  resume { ptr, i32 } %lpad.val4
}

; Function Attrs: mustprogress uwtable
define internal noundef ptr @_ZN7rocksdb12_GLOBAL__N_111SkipListRep11GetIteratorEPNS_5ArenaE(ptr noundef nonnull align 8 dereferenceable(88) %this, ptr noundef %arena) unnamed_addr #0 align 2 {
entry:
  %retval = alloca ptr, align 8
  %this.addr = alloca ptr, align 8
  %arena.addr = alloca ptr, align 8
  %mem = alloca ptr, align 8
  %mem3 = alloca ptr, align 8
  store ptr %this, ptr %this.addr, align 8
  store ptr %arena, ptr %arena.addr, align 8
  %this1 = load ptr, ptr %this.addr, align 8
  %lookahead_ = getelementptr inbounds %"class.rocksdb::(anonymous namespace)::SkipListRep", ptr %this1, i32 0, i32 4
  %0 = load i64, ptr %lookahead_, align 8
  %cmp = icmp ugt i64 %0, 0
  br i1 %cmp, label %if.then, label %if.else

if.then:                                          ; preds = %entry
  %1 = load ptr, ptr %arena.addr, align 8
  %tobool = icmp ne ptr %1, null
  br i1 %tobool, label %cond.true, label %cond.false

cond.true:                                        ; preds = %if.then
  %2 = load ptr, ptr %arena.addr, align 8
  %vtable = load ptr, ptr %2, align 16
  %vfn = getelementptr inbounds ptr, ptr %vtable, i64 3
  %3 = load ptr, ptr %vfn, align 8
  %call = call noundef ptr %3(ptr noundef nonnull align 16 dereferenceable(2288) %2, i64 noundef 80, i64 noundef 0, ptr noundef null)
  br label %cond.end

cond.false:                                       ; preds = %if.then
  %call2 = call noalias noundef nonnull ptr @_Znwm(i64 noundef 80) #21
  br label %cond.end

cond.end:                                         ; preds = %cond.false, %cond.true
  %cond = phi ptr [ %call, %cond.true ], [ %call2, %cond.false ]
  store ptr %cond, ptr %mem, align 8
  %4 = load ptr, ptr %mem, align 8
  call void @_ZN7rocksdb12_GLOBAL__N_111SkipListRep17LookaheadIteratorC2ERKS1_(ptr noundef nonnull align 8 dereferenceable(80) %4, ptr noundef nonnull align 8 dereferenceable(88) %this1)
  store ptr %4, ptr %retval, align 8
  br label %return

if.else:                                          ; preds = %entry
  %5 = load ptr, ptr %arena.addr, align 8
  %tobool4 = icmp ne ptr %5, null
  br i1 %tobool4, label %cond.true5, label %cond.false9

cond.true5:                                       ; preds = %if.else
  %6 = load ptr, ptr %arena.addr, align 8
  %vtable6 = load ptr, ptr %6, align 16
  %vfn7 = getelementptr inbounds ptr, ptr %vtable6, i64 3
  %7 = load ptr, ptr %vfn7, align 8
  %call8 = call noundef ptr %7(ptr noundef nonnull align 16 dereferenceable(2288) %6, i64 noundef 56, i64 noundef 0, ptr noundef null)
  br label %cond.end11

cond.false9:                                      ; preds = %if.else
  %call10 = call noalias noundef nonnull ptr @_Znwm(i64 noundef 56) #21
  br label %cond.end11

cond.end11:                                       ; preds = %cond.false9, %cond.true5
  %cond12 = phi ptr [ %call8, %cond.true5 ], [ %call10, %cond.false9 ]
  store ptr %cond12, ptr %mem3, align 8
  %8 = load ptr, ptr %mem3, align 8
  %skip_list_ = getelementptr inbounds %"class.rocksdb::(anonymous namespace)::SkipListRep", ptr %this1, i32 0, i32 1
  call void @_ZN7rocksdb12_GLOBAL__N_111SkipListRep8IteratorC2EPKNS_14InlineSkipListIRKNS_11MemTableRep13KeyComparatorEEE(ptr noundef nonnull align 8 dereferenceable(56) %8, ptr noundef %skip_list_)
  store ptr %8, ptr %retval, align 8
  br label %return

return:                                           ; preds = %cond.end11, %cond.end
  %9 = load ptr, ptr %retval, align 8
  ret ptr %9
}