; Function Attrs: mustprogress uwtable
define internal noundef ptr @_ZN7rocksdb12_GLOBAL__N_111SkipListRep11GetIteratorEPNS_5ArenaE(ptr noundef nonnull align 8 dereferenceable(88) %this, ptr noundef %arena) unnamed_addr #3 align 2 personality ptr @__gxx_personality_v0 {
entry:
  %lookahead_ = getelementptr inbounds i8, ptr %this, i64 80
  %0 = load i64, ptr %lookahead_, align 8
  %cmp.not = icmp eq i64 %0, 0
  %tobool4.not = icmp eq ptr %arena, null
  br i1 %cmp.not, label %if.else, label %if.then

if.then:                                          ; preds = %entry
  br i1 %tobool4.not, label %cond.false, label %cond.true

cond.true:                                        ; preds = %if.then
  %vtable = load ptr, ptr %arena, align 16
  %vfn = getelementptr inbounds i8, ptr %vtable, i64 24
  %1 = load ptr, ptr %vfn, align 8
  %call = tail call noundef ptr %1(ptr noundef nonnull align 16 dereferenceable(2288) %arena, i64 noundef 80, i64 noundef 0, ptr noundef null)
  br label %cond.end

cond.false:                                       ; preds = %if.then
  %call2 = tail call noalias noundef nonnull dereferenceable(80) ptr @_Znwm(i64 noundef 80) #26
  br label %cond.end

cond.end:                                         ; preds = %cond.false, %cond.true
  %cond = phi ptr [ %call, %cond.true ], [ %call2, %cond.false ]
  store ptr getelementptr inbounds ({ [13 x ptr] }, ptr @_ZTVN7rocksdb12_GLOBAL__N_111SkipListRep17LookaheadIteratorE, i64 0, i32 0, i64 2), ptr %cond, align 8
  %tmp_.i = getelementptr inbounds i8, ptr %cond, i64 8
  tail call void @_ZNSt7__cxx1112basic_stringIcSt11char_traitsIcESaIcEEC1Ev(ptr noundef nonnull align 8 dereferenceable(32) %tmp_.i) #23
  %rep_.i = getelementptr inbounds i8, ptr %cond, i64 40
  store ptr %this, ptr %rep_.i, align 8
  %iter_.i = getelementptr inbounds i8, ptr %cond, i64 48
  %skip_list_.i = getelementptr inbounds i8, ptr %this, i64 16
  store ptr %skip_list_.i, ptr %iter_.i, align 8
  %node_.i.i.i = getelementptr inbounds i8, ptr %cond, i64 56
  store ptr null, ptr %node_.i.i.i, align 8
  %prev_.i = getelementptr inbounds i8, ptr %cond, i64 64
  tail call void @llvm.memcpy.p0.p0.i64(ptr noundef nonnull align 8 dereferenceable(16) %prev_.i, ptr noundef nonnull align 8 dereferenceable(16) %iter_.i, i64 16, i1 false)
  br label %return

if.else:                                          ; preds = %entry
  br i1 %tobool4.not, label %cond.false9, label %cond.true5

cond.true5:                                       ; preds = %if.else
  %vtable6 = load ptr, ptr %arena, align 16
  %vfn7 = getelementptr inbounds i8, ptr %vtable6, i64 24
  %2 = load ptr, ptr %vfn7, align 8
  %call8 = tail call noundef ptr %2(ptr noundef nonnull align 16 dereferenceable(2288) %arena, i64 noundef 56, i64 noundef 0, ptr noundef null)
  br label %cond.end11

cond.false9:                                      ; preds = %if.else
  %call10 = tail call noalias noundef nonnull dereferenceable(56) ptr @_Znwm(i64 noundef 56) #26
  br label %cond.end11

cond.end11:                                       ; preds = %cond.false9, %cond.true5
  %cond12 = phi ptr [ %call8, %cond.true5 ], [ %call10, %cond.false9 ]
  %skip_list_ = getelementptr inbounds i8, ptr %this, i64 16
  store ptr getelementptr inbounds ({ [13 x ptr] }, ptr @_ZTVN7rocksdb12_GLOBAL__N_111SkipListRep8IteratorE, i64 0, i32 0, i64 2), ptr %cond12, align 8
  %iter_.i4 = getelementptr inbounds i8, ptr %cond12, i64 8
  store ptr %skip_list_, ptr %iter_.i4, align 8
  %node_.i.i.i5 = getelementptr inbounds i8, ptr %cond12, i64 16
  store ptr null, ptr %node_.i.i.i5, align 8
  %tmp_.i6 = getelementptr inbounds i8, ptr %cond12, i64 24
  tail call void @_ZNSt7__cxx1112basic_stringIcSt11char_traitsIcESaIcEEC1Ev(ptr noundef nonnull align 8 dereferenceable(32) %tmp_.i6) #23
  br label %return

return:                                           ; preds = %cond.end11, %cond.end
  %retval.0 = phi ptr [ %cond, %cond.end ], [ %cond12, %cond.end11 ]
  ret ptr %retval.0
}